target datalayout = "e-m:e-p270:32:32-p271:32:32-p272:64:64-i64:64-i128:128-f80:128-n8:16:32:64-S128"
target triple = "x86_64-pc-linux-gnu"

%struct.rb_iseq_struct = type { i64, i64, ptr, %union.anon.13 }
%union.anon.13 = type { %struct.anon.14 }
%struct.anon.14 = type { i64, i32 }
%struct.rb_iseq_constant_body = type { i32, i32, ptr, %struct.anon.16, %struct.rb_iseq_location_struct, %struct.iseq_insn_info, ptr, ptr, ptr, ptr, ptr, ptr, %struct.anon.17, i32, i32, i32, i32, i32, i32, i32, i32, i8, %union.anon.18, ptr, ptr, ptr, i64, ptr, i64, ptr, i64 }
%struct.anon.16 = type { %struct.anon, i32, i32, i32, i32, i32, i32, i32, ptr, ptr }
%struct.anon = type { i16, [2 x i8] }
%struct.rb_iseq_location_struct = type { i64, i64, i64, i32, i32, %struct.rb_code_location_struct }
%struct.rb_code_location_struct = type { %struct.rb_code_position_struct, %struct.rb_code_position_struct }
%struct.rb_code_position_struct = type { i32, i32 }
%struct.iseq_insn_info = type { ptr, ptr, i32, ptr }
%struct.anon.17 = type { i64, i64, i64, i64, ptr }
%union.anon.18 = type { ptr }

@.str.12 = private unnamed_addr constant [10 x i8] c"../yjit.c\00", align 1
@ruby_single_main_ractor = external global ptr, align 8

; Function Attrs: inlinehint nounwind sspstrong uwtable
define internal zeroext i1 @rb_multi_ractor_p() #7 {
  %1 = alloca i1, align 1
  %2 = load ptr, ptr @ruby_single_main_ractor, align 8, !tbaa !35
  %3 = icmp ne ptr %2, null
  %4 = xor i1 %3, true
  %5 = xor i1 %4, true
  %6 = zext i1 %5 to i32
  %7 = sext i32 %6 to i64
  %8 = call i64 @llvm.expect.i64(i64 %7, i64 1)
  %9 = icmp ne i64 %8, 0
  br i1 %9, label %10, label %11

10:                                               ; preds = %0
  store i1 false, ptr %1, align 1
  br label %12

11:                                               ; preds = %0
  store i1 true, ptr %1, align 1
  br label %12

12:                                               ; preds = %11, %10
  %13 = load i1, ptr %1, align 1
  ret i1 %13
}

; Function Attrs: inlinehint nounwind sspstrong uwtable
define internal void @rb_vm_lock_leave(ptr noundef %0, ptr noundef %1, i32 noundef %2) #7 {
  %4 = alloca ptr, align 8
  %5 = alloca ptr, align 8
  %6 = alloca i32, align 4
  store ptr %0, ptr %4, align 8, !tbaa !18
  store ptr %1, ptr %5, align 8, !tbaa !25
  store i32 %2, ptr %6, align 4, !tbaa !11
  %7 = call zeroext i1 @rb_multi_ractor_p()
  br i1 %7, label %8, label %10

8:                                                ; preds = %3
  %9 = load ptr, ptr %4, align 8, !tbaa !18
  call void @rb_vm_lock_leave_body(ptr noundef %9)
  br label %10

10:                                               ; preds = %8, %3
  ret void
}

; Function Attrs: inlinehint nounwind sspstrong uwtable
define internal void @rb_vm_lock_enter(ptr noundef %0, ptr noundef %1, i32 noundef %2) #7 {
  %4 = alloca ptr, align 8
  %5 = alloca ptr, align 8
  %6 = alloca i32, align 4
  store ptr %0, ptr %4, align 8, !tbaa !18
  store ptr %1, ptr %5, align 8, !tbaa !25
  store i32 %2, ptr %6, align 4, !tbaa !11
  %7 = call zeroext i1 @rb_multi_ractor_p()
  br i1 %7, label %8, label %10

8:                                                ; preds = %3
  %9 = load ptr, ptr %4, align 8, !tbaa !18
  call void @rb_vm_lock_enter_body(ptr noundef %9)
  br label %10

10:                                               ; preds = %8, %3
  ret void
}

; Function Attrs: nounwind sspstrong uwtable
define hidden void @rb_yjit_compile_iseq(ptr noundef %0, ptr noundef %1, i1 noundef zeroext %2) #0 {
  %4 = alloca ptr, align 8
  %5 = alloca ptr, align 8
  %6 = alloca i8, align 1
  %7 = alloca i32, align 4
  %8 = alloca i64, align 8
  store ptr %0, ptr %4, align 8, !tbaa !87
  store ptr %1, ptr %5, align 8, !tbaa !29
  %9 = zext i1 %2 to i8
  store i8 %9, ptr %6, align 1, !tbaa !74
  call void @llvm.lifetime.start.p0(i64 4, ptr %7) #5
  call void @rb_vm_lock_enter(ptr noundef %7, ptr noundef @.str.12, i32 noundef 1150)
  call void @rb_vm_barrier()
  call void @llvm.lifetime.start.p0(i64 8, ptr %8) #5
  %10 = load ptr, ptr %4, align 8, !tbaa !87
  %11 = load ptr, ptr %5, align 8, !tbaa !29
  %12 = load i8, ptr %6, align 1, !tbaa !74, !range !151, !noundef !152
  %13 = trunc i8 %12 to i1
  %14 = call ptr @rb_yjit_iseq_gen_entry_point(ptr noundef %10, ptr noundef %11, i1 noundef zeroext %13)
  %15 = ptrtoint ptr %14 to i64
  store i64 %15, ptr %8, align 8, !tbaa !13
  %16 = load i8, ptr %6, align 1, !tbaa !74, !range !151, !noundef !152
  %17 = trunc i8 %16 to i1
  br i1 %17, label %18, label %25

18:                                               ; preds = %3
  %19 = load i64, ptr %8, align 8, !tbaa !13
  %20 = inttoptr i64 %19 to ptr
  %21 = load ptr, ptr %4, align 8, !tbaa !87
  %22 = getelementptr inbounds nuw %struct.rb_iseq_struct, ptr %21, i32 0, i32 2
  %23 = load ptr, ptr %22, align 8, !tbaa !88
  %24 = getelementptr inbounds nuw %struct.rb_iseq_constant_body, ptr %23, i32 0, i32 27
  store ptr %20, ptr %24, align 8, !tbaa !110
  br label %32

25:                                               ; preds = %3
  %26 = load i64, ptr %8, align 8, !tbaa !13
  %27 = inttoptr i64 %26 to ptr
  %28 = load ptr, ptr %4, align 8, !tbaa !87
  %29 = getelementptr inbounds nuw %struct.rb_iseq_struct, ptr %28, i32 0, i32 2
  %30 = load ptr, ptr %29, align 8, !tbaa !88
  %31 = getelementptr inbounds nuw %struct.rb_iseq_constant_body, ptr %30, i32 0, i32 25
  store ptr %27, ptr %31, align 8, !tbaa !109
  br label %32

32:                                               ; preds = %25, %18
  call void @rb_vm_lock_leave(ptr noundef %7, ptr noundef @.str.12, i32 noundef 1164)
  call void @llvm.lifetime.end.p0(i64 8, ptr %8) #5
  call void @llvm.lifetime.end.p0(i64 4, ptr %7) #5
  ret void
}