; Function Attrs: nounwind sspstrong uwtable
define hidden void @rb_yjit_compile_iseq(ptr noundef %0, ptr noundef %1, i1 noundef zeroext %2) local_unnamed_addr #0 {
  %4 = alloca i32, align 4
  call void @llvm.lifetime.start.p0(i64 4, ptr nonnull %4) #5
  %5 = load ptr, ptr @ruby_single_main_ractor, align 8, !tbaa !21
  %.not.i.i = icmp eq ptr %5, null
  br i1 %.not.i.i, label %6, label %rb_vm_lock_enter.exit

6:                                                ; preds = %3
  call void @rb_vm_lock_enter_body(ptr noundef nonnull %4) #5
  br label %rb_vm_lock_enter.exit

rb_vm_lock_enter.exit:                            ; preds = %3, %6
  call void @rb_vm_barrier() #5
  %7 = call ptr @rb_yjit_iseq_gen_entry_point(ptr noundef %0, ptr noundef %1, i1 noundef zeroext %2) #5
  %8 = getelementptr inbounds nuw i8, ptr %0, i64 16
  %9 = load ptr, ptr %8, align 8, !tbaa !94
  %. = select i1 %2, i64 312, i64 296
  %10 = getelementptr inbounds nuw i8, ptr %9, i64 %.
  store ptr %7, ptr %10, align 8, !tbaa !194
  %11 = load ptr, ptr @ruby_single_main_ractor, align 8, !tbaa !21
  %.not.i.i7 = icmp eq ptr %11, null
  br i1 %.not.i.i7, label %12, label %rb_vm_lock_leave.exit

12:                                               ; preds = %rb_vm_lock_enter.exit
  call void @rb_vm_lock_leave_body(ptr noundef nonnull %4) #5
  br label %rb_vm_lock_leave.exit

rb_vm_lock_leave.exit:                            ; preds = %rb_vm_lock_enter.exit, %12
  call void @llvm.lifetime.end.p0(i64 4, ptr nonnull %4) #5
  ret void
}